target datalayout = "e-m:e-p270:32:32-p271:32:32-p272:64:64-i64:64-i128:128-f80:128-n8:16:32:64-S128"
target triple = "x86_64-pc-linux-gnu"

%struct._value_string = type { i32, ptr }
%struct.expert_field = type { i32, i32 }

@special_labels = external constant [0 x %struct._value_string], align 8
@hf_mpls_echo_tlv_ilso_addr_type = internal global i32 0, align 4
@hf_mpls_echo_tlv_ilso_mbz = internal global i32 0, align 4
@hf_mpls_echo_tlv_ilso_ipv4_addr = internal global i32 0, align 4
@hf_mpls_echo_tlv_ilso_ipv4_int_addr = internal global i32 0, align 4
@hf_mpls_echo_tlv_ilso_ipv6_addr = internal global i32 0, align 4
@hf_mpls_echo_tlv_ilso_ipv6_int_addr = internal global i32 0, align 4
@hf_mpls_echo_tlv_ilso_int_index = internal global i32 0, align 4
@hf_mpls_echo_tlv_ilso_label = internal global i32 0, align 4
@hf_mpls_echo_tlv_ilso_exp = internal global i32 0, align 4
@hf_mpls_echo_tlv_ilso_bos = internal global i32 0, align 4
@hf_mpls_echo_tlv_ilso_ttl = internal global i32 0, align 4
@ett_mpls_echo_tlv_ilso = internal global i32 0, align 4
@ei_mpls_echo_incorrect_address_type = internal global %struct.expert_field zeroinitializer, align 4
@.str.646 = private unnamed_addr constant [19 x i8] c"Reserved - Unknown\00", align 1
@.str.649 = private unnamed_addr constant [23 x i8] c"Label Stack Element %u\00", align 1
@.str.650 = private unnamed_addr constant [12 x i8] c", Label: %u\00", align 1
@.str.651 = private unnamed_addr constant [8 x i8] c"%u (%s)\00", align 1
@.str.652 = private unnamed_addr constant [6 x i8] c" (%s)\00", align 1
@.str.653 = private unnamed_addr constant [3 x i8] c"%u\00", align 1
@.str.654 = private unnamed_addr constant [28 x i8] c", Exp: %u, BOS: %u, TTL: %u\00", align 1

; Function Attrs: null_pointer_is_valid sspstrong uwtable
define internal void @dissect_mpls_echo_tlv_ilso(ptr noundef %0, ptr noundef %1, i32 noundef %2, ptr noundef %3, i32 noundef %4, i1 noundef zeroext %5) #0 {
  %7 = alloca ptr, align 8
  %8 = alloca ptr, align 8
  %9 = alloca i32, align 4
  %10 = alloca ptr, align 8
  %11 = alloca i32, align 4
  %12 = alloca i8, align 1
  %13 = alloca ptr, align 8
  %14 = alloca i8, align 1
  %15 = alloca i16, align 2
  %16 = alloca i32, align 4
  %17 = alloca i8, align 1
  %18 = alloca i8, align 1
  %19 = alloca i8, align 1
  %20 = alloca i32, align 4
  %21 = alloca ptr, align 8
  store ptr %0, ptr %7, align 8
  store ptr %1, ptr %8, align 8
  store i32 %2, ptr %9, align 4
  store ptr %3, ptr %10, align 8
  store i32 %4, ptr %11, align 4
  %22 = zext i1 %5 to i8
  store i8 %22, ptr %12, align 1
  call void @llvm.lifetime.start.p0(i64 8, ptr %13) #4
  call void @llvm.lifetime.start.p0(i64 1, ptr %14) #4
  call void @llvm.lifetime.start.p0(i64 2, ptr %15) #4
  store i16 1, ptr %15, align 2
  call void @llvm.lifetime.start.p0(i64 4, ptr %16) #4
  call void @llvm.lifetime.start.p0(i64 1, ptr %17) #4
  call void @llvm.lifetime.start.p0(i64 1, ptr %18) #4
  call void @llvm.lifetime.start.p0(i64 1, ptr %19) #4
  %23 = load ptr, ptr %10, align 8
  %24 = load i32, ptr @hf_mpls_echo_tlv_ilso_addr_type, align 4
  %25 = load ptr, ptr %7, align 8
  %26 = load i32, ptr %9, align 4
  %27 = call ptr @proto_tree_add_item(ptr noundef %23, i32 noundef %24, ptr noundef %25, i32 noundef %26, i32 noundef 1, i32 noundef 0)
  store ptr %27, ptr %13, align 8
  %28 = load ptr, ptr %7, align 8
  %29 = load i32, ptr %9, align 4
  %30 = call zeroext i8 @tvb_get_uint8(ptr noundef %28, i32 noundef %29)
  store i8 %30, ptr %14, align 1
  %31 = load i32, ptr %9, align 4
  %32 = add i32 %31, 1
  store i32 %32, ptr %9, align 4
  %33 = load i32, ptr %11, align 4
  %34 = sub i32 %33, 1
  store i32 %34, ptr %11, align 4
  %35 = load ptr, ptr %10, align 8
  %36 = load i32, ptr @hf_mpls_echo_tlv_ilso_mbz, align 4
  %37 = load ptr, ptr %7, align 8
  %38 = load i32, ptr %9, align 4
  %39 = call ptr @proto_tree_add_item(ptr noundef %35, i32 noundef %36, ptr noundef %37, i32 noundef %38, i32 noundef 3, i32 noundef 0)
  %40 = load i32, ptr %9, align 4
  %41 = add i32 %40, 3
  store i32 %41, ptr %9, align 4
  %42 = load i32, ptr %11, align 4
  %43 = sub i32 %42, 3
  store i32 %43, ptr %11, align 4
  %44 = load i8, ptr %14, align 1
  %45 = zext i8 %44 to i32
  %46 = icmp eq i32 %45, 1
  br i1 %46, label %51, label %47

47:                                               ; preds = %6
  %48 = load i8, ptr %14, align 1
  %49 = zext i8 %48 to i32
  %50 = icmp eq i32 %49, 2
  br i1 %50, label %51, label %86

51:                                               ; preds = %47, %6
  %52 = load i8, ptr %12, align 1, !range !8, !noundef !9
  %53 = trunc i8 %52 to i1
  br i1 %53, label %54, label %58

54:                                               ; preds = %51
  %55 = load ptr, ptr %8, align 8
  %56 = load ptr, ptr %13, align 8
  %57 = call ptr @expert_add_info(ptr noundef %55, ptr noundef %56, ptr noundef @ei_mpls_echo_incorrect_address_type)
  br label %58

58:                                               ; preds = %54, %51
  %59 = load ptr, ptr %10, align 8
  %60 = load i32, ptr @hf_mpls_echo_tlv_ilso_ipv4_addr, align 4
  %61 = load ptr, ptr %7, align 8
  %62 = load i32, ptr %9, align 4
  %63 = call ptr @proto_tree_add_item(ptr noundef %59, i32 noundef %60, ptr noundef %61, i32 noundef %62, i32 noundef 4, i32 noundef 0)
  %64 = load i8, ptr %14, align 1
  %65 = zext i8 %64 to i32
  %66 = icmp eq i32 %65, 1
  br i1 %66, label %67, label %74

67:                                               ; preds = %58
  %68 = load ptr, ptr %10, align 8
  %69 = load i32, ptr @hf_mpls_echo_tlv_ilso_ipv4_int_addr, align 4
  %70 = load ptr, ptr %7, align 8
  %71 = load i32, ptr %9, align 4
  %72 = add i32 %71, 4
  %73 = call ptr @proto_tree_add_item(ptr noundef %68, i32 noundef %69, ptr noundef %70, i32 noundef %72, i32 noundef 4, i32 noundef 0)
  br label %81

74:                                               ; preds = %58
  %75 = load ptr, ptr %10, align 8
  %76 = load i32, ptr @hf_mpls_echo_tlv_ilso_int_index, align 4
  %77 = load ptr, ptr %7, align 8
  %78 = load i32, ptr %9, align 4
  %79 = add i32 %78, 4
  %80 = call ptr @proto_tree_add_item(ptr noundef %75, i32 noundef %76, ptr noundef %77, i32 noundef %79, i32 noundef 4, i32 noundef 0)
  br label %81

81:                                               ; preds = %74, %67
  %82 = load i32, ptr %9, align 4
  %83 = add i32 %82, 8
  store i32 %83, ptr %9, align 4
  %84 = load i32, ptr %11, align 4
  %85 = sub i32 %84, 8
  store i32 %85, ptr %11, align 4
  br label %138

86:                                               ; preds = %47
  %87 = load i8, ptr %14, align 1
  %88 = zext i8 %87 to i32
  %89 = icmp eq i32 %88, 3
  br i1 %89, label %94, label %90

90:                                               ; preds = %86
  %91 = load i8, ptr %14, align 1
  %92 = zext i8 %91 to i32
  %93 = icmp eq i32 %92, 4
  br i1 %93, label %94, label %133

94:                                               ; preds = %90, %86
  %95 = load i8, ptr %12, align 1, !range !8, !noundef !9
  %96 = trunc i8 %95 to i1
  br i1 %96, label %101, label %97

97:                                               ; preds = %94
  %98 = load ptr, ptr %8, align 8
  %99 = load ptr, ptr %13, align 8
  %100 = call ptr @expert_add_info(ptr noundef %98, ptr noundef %99, ptr noundef @ei_mpls_echo_incorrect_address_type)
  br label %101

101:                                              ; preds = %97, %94
  %102 = load ptr, ptr %10, align 8
  %103 = load i32, ptr @hf_mpls_echo_tlv_ilso_ipv6_addr, align 4
  %104 = load ptr, ptr %7, align 8
  %105 = load i32, ptr %9, align 4
  %106 = call ptr @proto_tree_add_item(ptr noundef %102, i32 noundef %103, ptr noundef %104, i32 noundef %105, i32 noundef 16, i32 noundef 0)
  %107 = load i8, ptr %14, align 1
  %108 = zext i8 %107 to i32
  %109 = icmp eq i32 %108, 3
  br i1 %109, label %110, label %121

110:                                              ; preds = %101
  %111 = load ptr, ptr %10, align 8
  %112 = load i32, ptr @hf_mpls_echo_tlv_ilso_ipv6_int_addr, align 4
  %113 = load ptr, ptr %7, align 8
  %114 = load i32, ptr %9, align 4
  %115 = add i32 %114, 16
  %116 = call ptr @proto_tree_add_item(ptr noundef %111, i32 noundef %112, ptr noundef %113, i32 noundef %115, i32 noundef 16, i32 noundef 0)
  %117 = load i32, ptr %9, align 4
  %118 = add i32 %117, 32
  store i32 %118, ptr %9, align 4
  %119 = load i32, ptr %11, align 4
  %120 = sub i32 %119, 32
  store i32 %120, ptr %11, align 4
  br label %132

121:                                              ; preds = %101
  %122 = load ptr, ptr %10, align 8
  %123 = load i32, ptr @hf_mpls_echo_tlv_ilso_int_index, align 4
  %124 = load ptr, ptr %7, align 8
  %125 = load i32, ptr %9, align 4
  %126 = add i32 %125, 16
  %127 = call ptr @proto_tree_add_item(ptr noundef %122, i32 noundef %123, ptr noundef %124, i32 noundef %126, i32 noundef 4, i32 noundef 0)
  %128 = load i32, ptr %9, align 4
  %129 = add i32 %128, 20
  store i32 %129, ptr %9, align 4
  %130 = load i32, ptr %11, align 4
  %131 = sub i32 %130, 20
  store i32 %131, ptr %11, align 4
  br label %132

132:                                              ; preds = %121, %110
  br label %137

133:                                              ; preds = %90
  %134 = load ptr, ptr %8, align 8
  %135 = load ptr, ptr %13, align 8
  %136 = call ptr @expert_add_info(ptr noundef %134, ptr noundef %135, ptr noundef @ei_mpls_echo_incorrect_address_type)
  store i32 1, ptr %20, align 4
  br label %218

137:                                              ; preds = %132
  br label %138

138:                                              ; preds = %137, %81
  %139 = load ptr, ptr %10, align 8
  %140 = icmp ne ptr %139, null
  br i1 %140, label %141, label %217

141:                                              ; preds = %138
  br label %142

142:                                              ; preds = %180, %141
  %143 = load i32, ptr %11, align 4
  %144 = icmp sge i32 %143, 4
  br i1 %144, label %145, label %216

145:                                              ; preds = %142
  call void @llvm.lifetime.start.p0(i64 8, ptr %21) #4
  %146 = load ptr, ptr %7, align 8
  %147 = load i32, ptr %9, align 4
  call void @decode_mpls_label(ptr noundef %146, i32 noundef %147, ptr noundef %16, ptr noundef %17, ptr noundef %18, ptr noundef %19)
  %148 = load ptr, ptr %10, align 8
  %149 = load ptr, ptr %7, align 8
  %150 = load i32, ptr %9, align 4
  %151 = load i32, ptr @ett_mpls_echo_tlv_ilso, align 4
  %152 = load i16, ptr %15, align 2
  %153 = zext i16 %152 to i32
  %154 = call ptr (ptr, ptr, i32, i32, i32, ptr, ptr, ...) @proto_tree_add_subtree_format(ptr noundef %148, ptr noundef %149, i32 noundef %150, i32 noundef 4, i32 noundef %151, ptr noundef %13, ptr noundef @.str.649, i32 noundef %153)
  store ptr %154, ptr %21, align 8
  %155 = load ptr, ptr %13, align 8
  %156 = load i32, ptr %16, align 4
  call void (ptr, ptr, ...) @proto_item_append_text(ptr noundef %155, ptr noundef @.str.650, i32 noundef %156)
  %157 = load i32, ptr %16, align 4
  %158 = icmp ule i32 %157, 15
  br i1 %158, label %159, label %172

159:                                              ; preds = %145
  %160 = load ptr, ptr %21, align 8
  %161 = load i32, ptr @hf_mpls_echo_tlv_ilso_label, align 4
  %162 = load ptr, ptr %7, align 8
  %163 = load i32, ptr %9, align 4
  %164 = load i32, ptr %16, align 4
  %165 = load i32, ptr %16, align 4
  %166 = load i32, ptr %16, align 4
  %167 = call ptr @val_to_str_const(i32 noundef %166, ptr noundef @special_labels, ptr noundef @.str.646)
  %168 = call ptr (ptr, i32, ptr, i32, i32, i32, ptr, ...) @proto_tree_add_uint_format_value(ptr noundef %160, i32 noundef %161, ptr noundef %162, i32 noundef %163, i32 noundef 3, i32 noundef %164, ptr noundef @.str.651, i32 noundef %165, ptr noundef %167)
  %169 = load ptr, ptr %13, align 8
  %170 = load i32, ptr %16, align 4
  %171 = call ptr @val_to_str_const(i32 noundef %170, ptr noundef @special_labels, ptr noundef @.str.646)
  call void (ptr, ptr, ...) @proto_item_append_text(ptr noundef %169, ptr noundef @.str.652, ptr noundef %171)
  br label %180

172:                                              ; preds = %145
  %173 = load ptr, ptr %21, align 8
  %174 = load i32, ptr @hf_mpls_echo_tlv_ilso_label, align 4
  %175 = load ptr, ptr %7, align 8
  %176 = load i32, ptr %9, align 4
  %177 = load i32, ptr %16, align 4
  %178 = load i32, ptr %16, align 4
  %179 = call ptr (ptr, i32, ptr, i32, i32, i32, ptr, ...) @proto_tree_add_uint_format_value(ptr noundef %173, i32 noundef %174, ptr noundef %175, i32 noundef %176, i32 noundef 3, i32 noundef %177, ptr noundef @.str.653, i32 noundef %178)
  br label %180

180:                                              ; preds = %172, %159
  %181 = load ptr, ptr %13, align 8
  %182 = load i8, ptr %17, align 1
  %183 = zext i8 %182 to i32
  %184 = load i8, ptr %18, align 1
  %185 = zext i8 %184 to i32
  %186 = load i8, ptr %19, align 1
  %187 = zext i8 %186 to i32
  call void (ptr, ptr, ...) @proto_item_append_text(ptr noundef %181, ptr noundef @.str.654, i32 noundef %183, i32 noundef %185, i32 noundef %187)
  %188 = load ptr, ptr %21, align 8
  %189 = load i32, ptr @hf_mpls_echo_tlv_ilso_exp, align 4
  %190 = load ptr, ptr %7, align 8
  %191 = load i32, ptr %9, align 4
  %192 = add i32 %191, 2
  %193 = load i8, ptr %17, align 1
  %194 = zext i8 %193 to i32
  %195 = call ptr @proto_tree_add_uint(ptr noundef %188, i32 noundef %189, ptr noundef %190, i32 noundef %192, i32 noundef 1, i32 noundef %194)
  %196 = load ptr, ptr %21, align 8
  %197 = load i32, ptr @hf_mpls_echo_tlv_ilso_bos, align 4
  %198 = load ptr, ptr %7, align 8
  %199 = load i32, ptr %9, align 4
  %200 = add i32 %199, 2
  %201 = load i8, ptr %18, align 1
  %202 = zext i8 %201 to i32
  %203 = call ptr @proto_tree_add_uint(ptr noundef %196, i32 noundef %197, ptr noundef %198, i32 noundef %200, i32 noundef 1, i32 noundef %202)
  %204 = load ptr, ptr %21, align 8
  %205 = load i32, ptr @hf_mpls_echo_tlv_ilso_ttl, align 4
  %206 = load ptr, ptr %7, align 8
  %207 = load i32, ptr %9, align 4
  %208 = add i32 %207, 3
  %209 = call ptr @proto_tree_add_item(ptr noundef %204, i32 noundef %205, ptr noundef %206, i32 noundef %208, i32 noundef 1, i32 noundef 0)
  %210 = load i32, ptr %11, align 4
  %211 = sub i32 %210, 4
  store i32 %211, ptr %11, align 4
  %212 = load i32, ptr %9, align 4
  %213 = add i32 %212, 4
  store i32 %213, ptr %9, align 4
  %214 = load i16, ptr %15, align 2
  %215 = add i16 %214, 1
  store i16 %215, ptr %15, align 2
  call void @llvm.lifetime.end.p0(i64 8, ptr %21) #4
  br label %142, !llvm.loop !12

216:                                              ; preds = %142
  br label %217

217:                                              ; preds = %216, %138
  store i32 0, ptr %20, align 4
  br label %218

218:                                              ; preds = %217, %133
  call void @llvm.lifetime.end.p0(i64 1, ptr %19) #4
  call void @llvm.lifetime.end.p0(i64 1, ptr %18) #4
  call void @llvm.lifetime.end.p0(i64 1, ptr %17) #4
  call void @llvm.lifetime.end.p0(i64 4, ptr %16) #4
  call void @llvm.lifetime.end.p0(i64 2, ptr %15) #4
  call void @llvm.lifetime.end.p0(i64 1, ptr %14) #4
  call void @llvm.lifetime.end.p0(i64 8, ptr %13) #4
  %219 = load i32, ptr %20, align 4
  switch i32 %219, label %221 [
    i32 0, label %220
    i32 1, label %220
  ]

220:                                              ; preds = %218, %218
  ret void

221:                                              ; preds = %218
  unreachable
}