; Function Attrs: null_pointer_is_valid sspstrong uwtable
define internal fastcc void @dissect_mpls_echo_tlv_ilso(ptr noundef %0, ptr noundef %1, i32 noundef %2, ptr noundef %3, i32 noundef range(i32 12, 2147483644) %4, i1 noundef zeroext %5) unnamed_addr #0 {
  %7 = alloca ptr, align 8
  %8 = alloca i32, align 4
  %9 = alloca i8, align 1
  %10 = alloca i8, align 1
  %11 = alloca i8, align 1
  call void @llvm.lifetime.start.p0(i64 8, ptr nonnull %7) #4
  call void @llvm.lifetime.start.p0(i64 4, ptr nonnull %8) #4
  call void @llvm.lifetime.start.p0(i64 1, ptr nonnull %9) #4
  call void @llvm.lifetime.start.p0(i64 1, ptr nonnull %10) #4
  call void @llvm.lifetime.start.p0(i64 1, ptr nonnull %11) #4
  %12 = load i32, ptr @hf_mpls_echo_tlv_ilso_addr_type, align 4
  %13 = tail call ptr @proto_tree_add_item(ptr noundef %3, i32 noundef %12, ptr noundef %0, i32 noundef %2, i32 noundef 1, i32 noundef 0)
  store ptr %13, ptr %7, align 8
  %14 = tail call zeroext i8 @tvb_get_uint8(ptr noundef %0, i32 noundef %2)
  %15 = add i32 %2, 1
  %16 = load i32, ptr @hf_mpls_echo_tlv_ilso_mbz, align 4
  %17 = tail call ptr @proto_tree_add_item(ptr noundef %3, i32 noundef %16, ptr noundef %0, i32 noundef %15, i32 noundef 3, i32 noundef 0)
  %18 = add i32 %2, 4
  %19 = icmp eq i8 %14, 1
  %20 = add i8 %14, -1
  %or.cond = icmp ult i8 %20, 2
  br i1 %or.cond, label %21, label %30

21:                                               ; preds = %6
  br i1 %5, label %22, label %24

22:                                               ; preds = %21
  %23 = tail call ptr @expert_add_info(ptr noundef %1, ptr noundef %13, ptr noundef nonnull @ei_mpls_echo_incorrect_address_type)
  br label %24

24:                                               ; preds = %22, %21
  %25 = load i32, ptr @hf_mpls_echo_tlv_ilso_ipv4_addr, align 4
  %26 = tail call ptr @proto_tree_add_item(ptr noundef %3, i32 noundef %25, ptr noundef %0, i32 noundef %18, i32 noundef 4, i32 noundef 0)
  %27 = add i32 %2, 8
  %hf_mpls_echo_tlv_ilso_ipv4_int_addr.val = load i32, ptr @hf_mpls_echo_tlv_ilso_ipv4_int_addr, align 4
  %hf_mpls_echo_tlv_ilso_int_index.val = load i32, ptr @hf_mpls_echo_tlv_ilso_int_index, align 4
  %28 = select i1 %19, i32 %hf_mpls_echo_tlv_ilso_ipv4_int_addr.val, i32 %hf_mpls_echo_tlv_ilso_int_index.val
  %29 = tail call ptr @proto_tree_add_item(ptr noundef %3, i32 noundef %28, ptr noundef %0, i32 noundef %27, i32 noundef 4, i32 noundef 0)
  br label %48

30:                                               ; preds = %6
  %31 = icmp eq i8 %14, 3
  %32 = add i8 %14, -3
  %or.cond5 = icmp ult i8 %32, 2
  br i1 %or.cond5, label %33, label %46

33:                                               ; preds = %30
  br i1 %5, label %36, label %34

34:                                               ; preds = %33
  %35 = tail call ptr @expert_add_info(ptr noundef %1, ptr noundef %13, ptr noundef nonnull @ei_mpls_echo_incorrect_address_type)
  br label %36

36:                                               ; preds = %34, %33
  %37 = load i32, ptr @hf_mpls_echo_tlv_ilso_ipv6_addr, align 4
  %38 = tail call ptr @proto_tree_add_item(ptr noundef %3, i32 noundef %37, ptr noundef %0, i32 noundef %18, i32 noundef 16, i32 noundef 0)
  %39 = add i32 %2, 20
  br i1 %31, label %40, label %43

40:                                               ; preds = %36
  %41 = load i32, ptr @hf_mpls_echo_tlv_ilso_ipv6_int_addr, align 4
  %42 = tail call ptr @proto_tree_add_item(ptr noundef %3, i32 noundef %41, ptr noundef %0, i32 noundef %39, i32 noundef 16, i32 noundef 0)
  br label %48

43:                                               ; preds = %36
  %44 = load i32, ptr @hf_mpls_echo_tlv_ilso_int_index, align 4
  %45 = tail call ptr @proto_tree_add_item(ptr noundef %3, i32 noundef %44, ptr noundef %0, i32 noundef %39, i32 noundef 4, i32 noundef 0)
  br label %48

46:                                               ; preds = %30
  %47 = tail call ptr @expert_add_info(ptr noundef %1, ptr noundef %13, ptr noundef nonnull @ei_mpls_echo_incorrect_address_type)
  br label %.loopexit

48:                                               ; preds = %43, %40, %24
  %.sink87 = phi i32 [ 24, %43 ], [ 36, %40 ], [ 12, %24 ]
  %.sink = phi i32 [ -24, %43 ], [ -36, %40 ], [ -12, %24 ]
  %49 = add nsw i32 %4, %.sink
  %50 = icmp ne ptr %3, null
  %51 = icmp sgt i32 %49, 3
  %or.cond7 = select i1 %50, i1 %51, i1 false
  br i1 %or.cond7, label %.preheader.preheader, label %.loopexit

.preheader.preheader:                             ; preds = %48
  %52 = add i32 %2, %.sink87
  br label %.preheader

.preheader:                                       ; preds = %.preheader.preheader, %69
  %.182 = phi i32 [ %89, %69 ], [ %49, %.preheader.preheader ]
  %.080 = phi i16 [ %91, %69 ], [ 1, %.preheader.preheader ]
  %.1 = phi i32 [ %90, %69 ], [ %52, %.preheader.preheader ]
  call void @decode_mpls_label(ptr noundef %0, i32 noundef %.1, ptr noundef nonnull %8, ptr noundef nonnull %9, ptr noundef nonnull %10, ptr noundef nonnull %11)
  %53 = load i32, ptr @ett_mpls_echo_tlv_ilso, align 4
  %54 = zext i16 %.080 to i32
  %55 = call ptr (ptr, ptr, i32, i32, i32, ptr, ptr, ...) @proto_tree_add_subtree_format(ptr noundef nonnull %3, ptr noundef %0, i32 noundef %.1, i32 noundef 4, i32 noundef %53, ptr noundef nonnull %7, ptr noundef nonnull @.str.649, i32 noundef %54)
  %56 = load ptr, ptr %7, align 8
  %57 = load i32, ptr %8, align 4
  call void (ptr, ptr, ...) @proto_item_append_text(ptr noundef %56, ptr noundef nonnull @.str.650, i32 noundef %57)
  %58 = load i32, ptr %8, align 4
  %59 = icmp ult i32 %58, 16
  %60 = load i32, ptr @hf_mpls_echo_tlv_ilso_label, align 4
  br i1 %59, label %61, label %67

61:                                               ; preds = %.preheader
  %62 = call ptr @val_to_str_const(i32 noundef %58, ptr noundef nonnull @special_labels, ptr noundef nonnull @.str.646)
  %63 = call ptr (ptr, i32, ptr, i32, i32, i32, ptr, ...) @proto_tree_add_uint_format_value(ptr noundef %55, i32 noundef %60, ptr noundef %0, i32 noundef %.1, i32 noundef 3, i32 noundef %58, ptr noundef nonnull @.str.651, i32 noundef %58, ptr noundef %62)
  %64 = load ptr, ptr %7, align 8
  %65 = load i32, ptr %8, align 4
  %66 = call ptr @val_to_str_const(i32 noundef %65, ptr noundef nonnull @special_labels, ptr noundef nonnull @.str.646)
  call void (ptr, ptr, ...) @proto_item_append_text(ptr noundef %64, ptr noundef nonnull @.str.652, ptr noundef %66)
  br label %69

67:                                               ; preds = %.preheader
  %68 = call ptr (ptr, i32, ptr, i32, i32, i32, ptr, ...) @proto_tree_add_uint_format_value(ptr noundef %55, i32 noundef %60, ptr noundef %0, i32 noundef %.1, i32 noundef 3, i32 noundef %58, ptr noundef nonnull @.str.653, i32 noundef %58)
  br label %69

69:                                               ; preds = %67, %61
  %70 = load ptr, ptr %7, align 8
  %71 = load i8, ptr %9, align 1
  %72 = zext i8 %71 to i32
  %73 = load i8, ptr %10, align 1
  %74 = zext i8 %73 to i32
  %75 = load i8, ptr %11, align 1
  %76 = zext i8 %75 to i32
  call void (ptr, ptr, ...) @proto_item_append_text(ptr noundef %70, ptr noundef nonnull @.str.654, i32 noundef %72, i32 noundef %74, i32 noundef %76)
  %77 = load i32, ptr @hf_mpls_echo_tlv_ilso_exp, align 4
  %78 = add i32 %.1, 2
  %79 = load i8, ptr %9, align 1
  %80 = zext i8 %79 to i32
  %81 = call ptr @proto_tree_add_uint(ptr noundef %55, i32 noundef %77, ptr noundef %0, i32 noundef %78, i32 noundef 1, i32 noundef %80)
  %82 = load i32, ptr @hf_mpls_echo_tlv_ilso_bos, align 4
  %83 = load i8, ptr %10, align 1
  %84 = zext i8 %83 to i32
  %85 = call ptr @proto_tree_add_uint(ptr noundef %55, i32 noundef %82, ptr noundef %0, i32 noundef %78, i32 noundef 1, i32 noundef %84)
  %86 = load i32, ptr @hf_mpls_echo_tlv_ilso_ttl, align 4
  %87 = add i32 %.1, 3
  %88 = call ptr @proto_tree_add_item(ptr noundef %55, i32 noundef %86, ptr noundef %0, i32 noundef %87, i32 noundef 1, i32 noundef 0)
  %89 = add nsw i32 %.182, -4
  %90 = add i32 %.1, 4
  %91 = add i16 %.080, 1
  %.old6 = icmp sgt i32 %.182, 7
  br i1 %.old6, label %.preheader, label %.loopexit

.loopexit:                                        ; preds = %69, %48, %46
  call void @llvm.lifetime.end.p0(i64 1, ptr nonnull %11) #4
  call void @llvm.lifetime.end.p0(i64 1, ptr nonnull %10) #4
  call void @llvm.lifetime.end.p0(i64 1, ptr nonnull %9) #4
  call void @llvm.lifetime.end.p0(i64 4, ptr nonnull %8) #4
  call void @llvm.lifetime.end.p0(i64 8, ptr nonnull %7) #4
  ret void
}